CCS PCM C Compiler, Version 5.076, 56587               10-oct.-20 13:49

               Filename:   C:\Users\Francisco\Documents\!Facultad - UF\Electrónica Digital II\Ejercicios\Guia3\Problema 2\main.lst

               ROM used:   87 words (2%)
                           Largest free fragment is 2048
               RAM used:   13 (4%) at main() level
                           13 (4%) worst case
               Stack used: 1 locations (0 in main + 1 for interrupts)
               Stack size: 8

*
0000:  MOVLW  00
0001:  MOVWF  0A
0002:  GOTO   03B
0003:  NOP
0004:  MOVWF  7F
0005:  SWAPF  03,W
0006:  CLRF   03
0007:  MOVWF  21
0008:  MOVF   7F,W
0009:  MOVWF  20
000A:  MOVF   0A,W
000B:  MOVWF  27
000C:  CLRF   0A
000D:  SWAPF  20,F
000E:  MOVF   04,W
000F:  MOVWF  22
0010:  MOVF   77,W
0011:  MOVWF  23
0012:  MOVF   78,W
0013:  MOVWF  24
0014:  MOVF   79,W
0015:  MOVWF  25
0016:  MOVF   7A,W
0017:  MOVWF  26
0018:  BCF    03.7
0019:  BCF    03.5
001A:  BTFSS  0B.5
001B:  GOTO   01E
001C:  BTFSC  0B.2
001D:  GOTO   02F
001E:  MOVF   22,W
001F:  MOVWF  04
0020:  MOVF   23,W
0021:  MOVWF  77
0022:  MOVF   24,W
0023:  MOVWF  78
0024:  MOVF   25,W
0025:  MOVWF  79
0026:  MOVF   26,W
0027:  MOVWF  7A
0028:  MOVF   27,W
0029:  MOVWF  0A
002A:  SWAPF  21,W
002B:  MOVWF  03
002C:  SWAPF  7F,F
002D:  SWAPF  7F,W
002E:  RETFIE
002F:  BCF    0A.3
0030:  GOTO   031
.................... /* 
.................... Realice una rutina que genere por intermedio del Timer 0 una señal cuadrada 
.................... de 0,4Khz en el pin RB0 y se conecte a un osciloscopio 
....................  
.................... T=1/f=1/400Hz=0,0025s => semiperiodo=0,00125s 
....................  
.................... => x=100=0x64 con un prescaler de 8 
....................  
.................... */ 
.................... #include <main.h> 
.................... #include <16F88.h> 
.................... //////////// Standard Header file for the PIC16F88 device //////////////// 
.................... /////////////////////////////////////////////////////////////////////////// 
.................... ////        (C) Copyright 1996, 2014 Custom Computer Services          //// 
.................... //// This source code may only be used by licensed users of the CCS C  //// 
.................... //// compiler.  This source code may only be distributed to other      //// 
.................... //// licensed users of the CCS C compiler.  No other use, reproduction //// 
.................... //// or distribution is permitted without written permission.          //// 
.................... //// Derivative programs created using this software in object code    //// 
.................... //// form are not restricted in any way.                               //// 
.................... /////////////////////////////////////////////////////////////////////////// 
.................... #device PIC16F88 
....................  
.................... #list 
....................  
.................... #device ADC=10 
.................... #use delay(crystal=4000000) 
....................  
....................  
....................  
.................... #BYTE PORTB=0x06 
.................... #BYTE TRISB=0x86 
....................  
.................... #INT_TIMER0 
.................... void TIMER0_isr(){ 
.................... 	output_toggle(PIN_B0); 
0031:  BSF    03.5
0032:  BCF    06.0
0033:  MOVLW  01
0034:  BCF    03.5
0035:  XORWF  06,F
.................... 	set_timer0(0x64); 
0036:  MOVLW  64
0037:  MOVWF  01
0038:  BCF    0B.2
0039:  BCF    0A.3
003A:  GOTO   01E
.................... } 
....................  
.................... void main(){ 
003B:  MOVF   03,W
003C:  ANDLW  1F
003D:  MOVWF  03
003E:  BSF    03.5
003F:  BCF    1F.4
0040:  BCF    1F.5
0041:  MOVF   1B,W
0042:  ANDLW  80
0043:  MOVWF  1B
0044:  MOVLW  07
0045:  MOVWF  1C
0046:  BCF    03.7
....................  
.................... 	TRISB=0x00; 
0047:  CLRF   06
.................... 	PORTB=0x00; 
0048:  BCF    03.5
0049:  CLRF   06
....................   	 
.................... 	setup_timer_0(RTCC_INTERNAL|RTCC_DIV_8); //Configuración timer0 
004A:  BSF    03.5
004B:  MOVF   01,W
004C:  ANDLW  C0
004D:  IORLW  02
004E:  MOVWF  01
.................... 	set_timer0(0x64); 
004F:  MOVLW  64
0050:  BCF    03.5
0051:  MOVWF  01
.................... 	enable_interrupts(INT_TIMER0); 
0052:  BSF    0B.5
.................... 	enable_interrupts(GLOBAL); 
0053:  MOVLW  C0
0054:  IORWF  0B,F
....................  
.................... 	while(TRUE){} 
0055:  GOTO   055
....................  
.................... } 
0056:  SLEEP

Configuration Fuses:
   Word  1: 3F61   NOWDT PUT XT MCLR BROWNOUT NOLVP NOCPD NOWRT NODEBUG CCPB0 NOPROTECT
   Word  2: 3FFF   FCMEN IESO
